Certificate:
    Data:
        Version: 1 (0x0)
        Serial Number: 1 (0x1)
    Signature Algorithm: sha256WithRSAEncryption
        Issuer: C=US, ST=CA, L=Palo Alto, O=StayUp, CN=CA Admin/emailAddress=admin@stayup.zone
        Validity
            Not Before: Mar 20 23:35:30 2018 GMT
            Not After : Mar 17 23:35:30 2028 GMT
        Subject: C=US, ST=CA, O=StayUp, CN=service-gateway
        Subject Public Key Info:
            Public Key Algorithm: rsaEncryption
                Public-Key: (2048 bit)
                Modulus:
                    00:e0:ce:60:9b:93:0b:43:dc:8a:09:4a:fd:77:67:
                    55:18:6c:86:a9:05:f1:53:f1:b1:16:27:91:21:c1:
                    2a:bf:67:79:12:cd:cb:bf:cc:64:68:9f:73:9e:44:
                    13:d8:d6:3d:2a:16:6a:8e:9d:e1:4e:3b:74:05:78:
                    bb:ca:f5:59:36:8d:6d:22:94:9d:e2:61:f3:b6:f0:
                    f4:d5:05:2f:79:6d:79:8f:e4:27:0f:19:91:a5:bc:
                    0c:4d:40:44:1a:02:e1:70:87:cb:a1:79:52:b2:c9:
                    f6:8b:d8:84:dd:b8:43:a4:5e:3e:c5:1c:40:cd:52:
                    5e:8f:c8:4c:04:d4:5b:6b:0a:e3:41:92:03:a1:ce:
                    25:2e:02:3d:fb:30:10:5b:b3:c5:d5:85:c7:d6:1d:
                    e4:b2:39:c9:c6:fa:0d:dc:76:29:3c:2e:5d:e0:bc:
                    44:ef:b7:ce:b7:bc:4f:ae:09:c8:6c:a9:67:85:1a:
                    e8:39:b1:1c:6a:55:10:ee:9d:a5:0d:03:7f:44:04:
                    0e:71:d4:95:b0:ac:67:9b:93:da:09:bc:8e:4f:16:
                    1d:b1:e0:04:24:1d:93:14:b7:95:ff:b5:54:53:96:
                    bb:3a:fd:bb:54:a2:2f:39:bd:aa:1d:15:38:46:6c:
                    58:c2:18:98:63:54:f3:00:40:e8:4f:52:da:8c:1f:
                    83:9f
                Exponent: 65537 (0x10001)
    Signature Algorithm: sha256WithRSAEncryption
         38:9c:91:5f:58:c6:4c:f1:59:77:a0:35:d3:7a:2e:63:d7:35:
         97:3d:a6:10:6d:52:c3:30:9a:41:6a:93:66:d2:98:21:31:55:
         6a:ad:54:0a:3a:6c:b9:8d:14:d2:8e:53:ec:64:b0:cc:04:8c:
         d9:2b:8a:8a:9a:0c:ff:6f:de:e6:3f:3d:aa:7d:bd:c4:a4:16:
         97:20:3f:4c:de:be:ba:b7:7d:7c:3d:56:25:80:a6:e0:99:8b:
         89:2f:33:59:bc:44:de:fe:c2:67:99:7b:eb:21:b3:36:2c:dd:
         d9:68:20:c3:c2:42:65:71:aa:1e:9a:f8:55:2d:98:4c:cc:67:
         28:fe:c9:30:3a:c9:c6:03:5d:d7:36:35:73:51:06:2f:71:a1:
         c3:79:c6:84:7e:80:42:e0:49:33:8a:ab:e8:49:35:58:df:b5:
         25:03:16:a0:b8:20:b8:65:c8:2e:1b:d5:de:3f:dc:a0:59:0f:
         a4:77:ad:a7:5b:4b:f9:05:23:a4:d0:f7:a7:27:a7:f3:11:75:
         23:44:a9:fe:18:b0:22:b8:6d:66:8c:35:74:f5:b2:a7:02:5d:
         93:c9:f7:57:81:3f:30:ec:d8:1d:ac:38:ed:93:60:c3:bf:49:
         f8:17:49:a8:7b:64:2d:72:8a:99:03:cc:67:6f:83:56:1e:57:
         68:82:0d:9e
-----BEGIN CERTIFICATE-----
MIIDLTCCAhUCAQEwDQYJKoZIhvcNAQELBQAwdDELMAkGA1UEBhMCVVMxCzAJBgNV
BAgMAkNBMRIwEAYDVQQHDAlQYWxvIEFsdG8xDzANBgNVBAoMBlN0YXlVcDERMA8G
A1UEAwwIQ0EgQWRtaW4xIDAeBgkqhkiG9w0BCQEWEWFkbWluQHN0YXl1cC56b25l
MB4XDTE4MDMyMDIzMzUzMFoXDTI4MDMxNzIzMzUzMFowRTELMAkGA1UEBhMCVVMx
CzAJBgNVBAgMAkNBMQ8wDQYDVQQKDAZTdGF5VXAxGDAWBgNVBAMMD3NlcnZpY2Ut
Z2F0ZXdheTCCASIwDQYJKoZIhvcNAQEBBQADggEPADCCAQoCggEBAODOYJuTC0Pc
iglK/XdnVRhshqkF8VPxsRYnkSHBKr9neRLNy7/MZGifc55EE9jWPSoWao6d4U47
dAV4u8r1WTaNbSKUneJh87bw9NUFL3lteY/kJw8ZkaW8DE1ARBoC4XCHy6F5UrLJ
9ovYhN24Q6RePsUcQM1SXo/ITATUW2sK40GSA6HOJS4CPfswEFuzxdWFx9Yd5LI5
ycb6Ddx2KTwuXeC8RO+3zre8T64JyGypZ4Ua6DmxHGpVEO6dpQ0Df0QEDnHUlbCs
Z5uT2gm8jk8WHbHgBCQdkxS3lf+1VFOWuzr9u1SiLzm9qh0VOEZsWMIYmGNU8wBA
6E9S2owfg58CAwEAATANBgkqhkiG9w0BAQsFAAOCAQEAOJyRX1jGTPFZd6A103ou
Y9c1lz2mEG1SwzCaQWqTZtKYITFVaq1UCjpsuY0U0o5T7GSwzASM2SuKipoM/2/e
5j89qn29xKQWlyA/TN6+urd9fD1WJYCm4JmLiS8zWbxE3v7CZ5l76yGzNizd2Wgg
w8JCZXGqHpr4VS2YTMxnKP7JMDrJxgNd1zY1c1EGL3Ghw3nGhH6AQuBJM4qr6Ek1
WN+1JQMWoLgguGXILhvV3j/coFkPpHetp1tL+QUjpND3pyen8xF1I0Sp/hiwIrht
Zow1dPWypwJdk8n3V4E/MOzYHaw47ZNgw79J+BdJqHtkLXKKmQPMZ2+DVh5XaIIN
ng==
-----END CERTIFICATE-----
